target datalayout = "e-m:e-p270:32:32-p271:32:32-p272:64:64-i64:64-i128:128-f80:128-n8:16:32:64-S128"
target triple = "x86_64-pc-linux-gnu"

%struct.stbtt__point = type { float, float }

; Function Attrs: nounwind uwtable
define void @stbtt__add_point(ptr noundef %0, i32 noundef %1, float noundef %2, float noundef %3) #0 {
  %5 = alloca ptr, align 8
  %6 = alloca i32, align 4
  %7 = alloca float, align 4
  %8 = alloca float, align 4
  store ptr %0, ptr %5, align 8, !tbaa !3
  store i32 %1, ptr %6, align 4, !tbaa !14
  store float %2, ptr %7, align 4, !tbaa !67
  store float %3, ptr %8, align 4, !tbaa !67
  %9 = load ptr, ptr %5, align 8, !tbaa !3
  %10 = icmp ne ptr %9, null
  br i1 %10, label %12, label %11

11:                                               ; preds = %4
  br label %25

12:                                               ; preds = %4
  %13 = load float, ptr %7, align 4, !tbaa !67
  %14 = load ptr, ptr %5, align 8, !tbaa !3
  %15 = load i32, ptr %6, align 4, !tbaa !14
  %16 = sext i32 %15 to i64
  %17 = getelementptr inbounds %struct.stbtt__point, ptr %14, i64 %16
  %18 = getelementptr inbounds nuw %struct.stbtt__point, ptr %17, i32 0, i32 0
  store float %13, ptr %18, align 4, !tbaa !157
  %19 = load float, ptr %8, align 4, !tbaa !67
  %20 = load ptr, ptr %5, align 8, !tbaa !3
  %21 = load i32, ptr %6, align 4, !tbaa !14
  %22 = sext i32 %21 to i64
  %23 = getelementptr inbounds %struct.stbtt__point, ptr %20, i64 %22
  %24 = getelementptr inbounds nuw %struct.stbtt__point, ptr %23, i32 0, i32 1
  store float %19, ptr %24, align 4, !tbaa !155
  br label %25

25:                                               ; preds = %12, %11
  ret void
}