; Function Attrs: mustprogress nofree norecurse nosync nounwind willreturn memory(argmem: write) uwtable
define void @stbtt__add_point(ptr noundef writeonly captures(address_is_null) %0, i32 noundef %1, float noundef %2, float noundef %3) local_unnamed_addr #12 {
  %.not = icmp eq ptr %0, null
  br i1 %.not, label %9, label %5

5:                                                ; preds = %4
  %6 = sext i32 %1 to i64
  %7 = getelementptr inbounds %struct.stbtt__point, ptr %0, i64 %6
  store float %2, ptr %7, align 4, !tbaa !137
  %8 = getelementptr inbounds nuw i8, ptr %7, i64 4
  store float %3, ptr %8, align 4, !tbaa !135
  br label %9

9:                                                ; preds = %4, %5
  ret void
}